target datalayout = "e-m:e-p270:32:32-p271:32:32-p272:64:64-i64:64-i128:128-f80:128-n8:16:32:64-S128"
target triple = "x86_64-pc-linux-gnu"

%struct.Node = type { i32 }
%struct.ForEachState = type { ptr, i32 }
%struct.List = type { i32, i32, i32, ptr, [0 x %union.ListCell] }
%union.ListCell = type { ptr }
%struct.RelOptInfo = type { i32, i32, ptr, double, i8, i8, i8, ptr, ptr, ptr, ptr, ptr, ptr, ptr, ptr, ptr, ptr, i32, i32, i32, i16, i16, ptr, ptr, ptr, ptr, ptr, ptr, ptr, ptr, i32, double, double, ptr, ptr, ptr, i32, i32, i32, i32, i8, ptr, ptr, ptr, ptr, ptr, %struct.QualCost, i32, ptr, i8, i8, ptr, ptr, ptr, ptr, i32, ptr, i8, ptr, ptr, ptr, ptr, ptr, ptr }
%struct.QualCost = type { double, double }
%struct.Path = type { i32, i32, ptr, ptr, ptr, i8, i8, i32, double, i32, double, double, ptr }
%struct.JoinPath = type { %struct.Path, i32, i8, ptr, ptr, ptr }
%struct.ForeignPath = type { %struct.Path, ptr, ptr, ptr }

; Function Attrs: inlinehint nounwind uwtable
define internal ptr @newNode(i64 noundef %0, i32 noundef %1) #3 {
  %3 = alloca i64, align 8
  %4 = alloca i32, align 4
  %5 = alloca ptr, align 8
  store i64 %0, ptr %3, align 8
  store i32 %1, ptr %4, align 4
  call void @llvm.lifetime.start.p0(i64 8, ptr %5) #9
  %6 = load i64, ptr %3, align 8
  %7 = call ptr @palloc0(i64 noundef %6)
  store ptr %7, ptr %5, align 8
  %8 = load i32, ptr %4, align 4
  %9 = load ptr, ptr %5, align 8
  %10 = getelementptr inbounds nuw %struct.Node, ptr %9, i32 0, i32 0
  store i32 %8, ptr %10, align 4
  %11 = load ptr, ptr %5, align 8
  call void @llvm.lifetime.end.p0(i64 8, ptr %5) #9
  ret ptr %11
}

; Function Attrs: nounwind uwtable
define dso_local ptr @GetExistingLocalJoinPath(ptr noundef %0) #0 {
  %2 = alloca ptr, align 8
  %3 = alloca ptr, align 8
  %4 = alloca ptr, align 8
  %5 = alloca %struct.ForEachState, align 8
  %6 = alloca i32, align 4
  %7 = alloca ptr, align 8
  %8 = alloca ptr, align 8
  %9 = alloca ptr, align 8
  %10 = alloca ptr, align 8
  %11 = alloca ptr, align 8
  %12 = alloca ptr, align 8
  %13 = alloca ptr, align 8
  store ptr %0, ptr %3, align 8
  call void @llvm.lifetime.start.p0(i64 8, ptr %4) #9
  call void @llvm.lifetime.start.p0(i64 16, ptr %5) #9
  %14 = getelementptr inbounds nuw %struct.ForEachState, ptr %5, i32 0, i32 0
  %15 = load ptr, ptr %3, align 8
  %16 = getelementptr inbounds nuw %struct.RelOptInfo, ptr %15, i32 0, i32 8
  %17 = load ptr, ptr %16, align 8
  store ptr %17, ptr %14, align 8
  %18 = getelementptr inbounds nuw %struct.ForEachState, ptr %5, i32 0, i32 1
  store i32 0, ptr %18, align 8
  %19 = getelementptr i8, ptr %5, i64 12
  call void @llvm.memset.p0.i64(ptr align 4 %19, i8 0, i64 4, i1 false)
  br label %20

20:                                               ; preds = %148, %1
  %21 = getelementptr inbounds nuw %struct.ForEachState, ptr %5, i32 0, i32 0
  %22 = load ptr, ptr %21, align 8
  %23 = icmp ne ptr %22, null
  br i1 %23, label %24, label %41

24:                                               ; preds = %20
  %25 = getelementptr inbounds nuw %struct.ForEachState, ptr %5, i32 0, i32 1
  %26 = load i32, ptr %25, align 8
  %27 = getelementptr inbounds nuw %struct.ForEachState, ptr %5, i32 0, i32 0
  %28 = load ptr, ptr %27, align 8
  %29 = getelementptr inbounds nuw %struct.List, ptr %28, i32 0, i32 1
  %30 = load i32, ptr %29, align 4
  %31 = icmp slt i32 %26, %30
  br i1 %31, label %32, label %41

32:                                               ; preds = %24
  %33 = getelementptr inbounds nuw %struct.ForEachState, ptr %5, i32 0, i32 0
  %34 = load ptr, ptr %33, align 8
  %35 = getelementptr inbounds nuw %struct.List, ptr %34, i32 0, i32 3
  %36 = load ptr, ptr %35, align 8
  %37 = getelementptr inbounds nuw %struct.ForEachState, ptr %5, i32 0, i32 1
  %38 = load i32, ptr %37, align 8
  %39 = sext i32 %38 to i64
  %40 = getelementptr inbounds %union.ListCell, ptr %36, i64 %39
  store ptr %40, ptr %4, align 8
  br label %42

41:                                               ; preds = %24, %20
  store ptr null, ptr %4, align 8
  br label %42

42:                                               ; preds = %41, %32
  %43 = phi i32 [ 1, %32 ], [ 0, %41 ]
  %44 = icmp ne i32 %43, 0
  br i1 %44, label %46, label %45

45:                                               ; preds = %42
  store i32 2, ptr %6, align 4
  br label %152

46:                                               ; preds = %42
  call void @llvm.lifetime.start.p0(i64 8, ptr %7) #9
  %47 = load ptr, ptr %4, align 8
  %48 = load ptr, ptr %47, align 8
  store ptr %48, ptr %7, align 8
  call void @llvm.lifetime.start.p0(i64 8, ptr %8) #9
  store ptr null, ptr %8, align 8
  %49 = load ptr, ptr %7, align 8
  %50 = getelementptr inbounds nuw %struct.Path, ptr %49, i32 0, i32 4
  %51 = load ptr, ptr %50, align 8
  %52 = icmp ne ptr %51, null
  br i1 %52, label %53, label %54

53:                                               ; preds = %46
  store i32 4, ptr %6, align 4
  br label %146

54:                                               ; preds = %46
  %55 = load ptr, ptr %7, align 8
  %56 = getelementptr inbounds nuw %struct.Path, ptr %55, i32 0, i32 1
  %57 = load i32, ptr %56, align 4
  switch i32 %57, label %73 [
    i32 358, label %58
    i32 355, label %63
    i32 357, label %68
  ]

58:                                               ; preds = %54
  call void @llvm.lifetime.start.p0(i64 8, ptr %9) #9
  %59 = call ptr @newNode(i64 noundef 136, i32 noundef 299)
  store ptr %59, ptr %9, align 8
  %60 = load ptr, ptr %9, align 8
  %61 = load ptr, ptr %7, align 8
  call void @llvm.memcpy.p0.p0.i64(ptr align 8 %60, ptr align 8 %61, i64 136, i1 false)
  %62 = load ptr, ptr %9, align 8
  store ptr %62, ptr %8, align 8
  call void @llvm.lifetime.end.p0(i64 8, ptr %9) #9
  br label %74

63:                                               ; preds = %54
  call void @llvm.lifetime.start.p0(i64 8, ptr %10) #9
  %64 = call ptr @newNode(i64 noundef 112, i32 noundef 297)
  store ptr %64, ptr %10, align 8
  %65 = load ptr, ptr %10, align 8
  %66 = load ptr, ptr %7, align 8
  call void @llvm.memcpy.p0.p0.i64(ptr align 8 %65, ptr align 8 %66, i64 112, i1 false)
  %67 = load ptr, ptr %10, align 8
  store ptr %67, ptr %8, align 8
  call void @llvm.lifetime.end.p0(i64 8, ptr %10) #9
  br label %74

68:                                               ; preds = %54
  call void @llvm.lifetime.start.p0(i64 8, ptr %11) #9
  %69 = call ptr @newNode(i64 noundef 144, i32 noundef 298)
  store ptr %69, ptr %11, align 8
  %70 = load ptr, ptr %11, align 8
  %71 = load ptr, ptr %7, align 8
  call void @llvm.memcpy.p0.p0.i64(ptr align 8 %70, ptr align 8 %71, i64 144, i1 false)
  %72 = load ptr, ptr %11, align 8
  store ptr %72, ptr %8, align 8
  call void @llvm.lifetime.end.p0(i64 8, ptr %11) #9
  br label %74

73:                                               ; preds = %54
  br label %74

74:                                               ; preds = %73, %68, %63, %58
  %75 = load ptr, ptr %8, align 8
  %76 = icmp ne ptr %75, null
  br i1 %76, label %78, label %77

77:                                               ; preds = %74
  store i32 4, ptr %6, align 4
  br label %146

78:                                               ; preds = %74
  %79 = load ptr, ptr %8, align 8
  %80 = getelementptr inbounds nuw %struct.JoinPath, ptr %79, i32 0, i32 3
  %81 = load ptr, ptr %80, align 8
  %82 = getelementptr inbounds nuw %struct.Node, ptr %81, i32 0, i32 0
  %83 = load i32, ptr %82, align 4
  %84 = icmp eq i32 %83, 287
  br i1 %84, label %85, label %111

85:                                               ; preds = %78
  call void @llvm.lifetime.start.p0(i64 8, ptr %12) #9
  %86 = load ptr, ptr %8, align 8
  %87 = getelementptr inbounds nuw %struct.JoinPath, ptr %86, i32 0, i32 3
  %88 = load ptr, ptr %87, align 8
  store ptr %88, ptr %12, align 8
  %89 = load ptr, ptr %12, align 8
  %90 = getelementptr inbounds nuw %struct.ForeignPath, ptr %89, i32 0, i32 0
  %91 = getelementptr inbounds nuw %struct.Path, ptr %90, i32 0, i32 2
  %92 = load ptr, ptr %91, align 8
  %93 = getelementptr inbounds nuw %struct.RelOptInfo, ptr %92, i32 0, i32 1
  %94 = load i32, ptr %93, align 4
  %95 = icmp eq i32 %94, 1
  br i1 %95, label %104, label %96

96:                                               ; preds = %85
  %97 = load ptr, ptr %12, align 8
  %98 = getelementptr inbounds nuw %struct.ForeignPath, ptr %97, i32 0, i32 0
  %99 = getelementptr inbounds nuw %struct.Path, ptr %98, i32 0, i32 2
  %100 = load ptr, ptr %99, align 8
  %101 = getelementptr inbounds nuw %struct.RelOptInfo, ptr %100, i32 0, i32 1
  %102 = load i32, ptr %101, align 4
  %103 = icmp eq i32 %102, 3
  br i1 %103, label %104, label %110

104:                                              ; preds = %96, %85
  %105 = load ptr, ptr %12, align 8
  %106 = getelementptr inbounds nuw %struct.ForeignPath, ptr %105, i32 0, i32 1
  %107 = load ptr, ptr %106, align 8
  %108 = load ptr, ptr %8, align 8
  %109 = getelementptr inbounds nuw %struct.JoinPath, ptr %108, i32 0, i32 3
  store ptr %107, ptr %109, align 8
  br label %110

110:                                              ; preds = %104, %96
  call void @llvm.lifetime.end.p0(i64 8, ptr %12) #9
  br label %111

111:                                              ; preds = %110, %78
  %112 = load ptr, ptr %8, align 8
  %113 = getelementptr inbounds nuw %struct.JoinPath, ptr %112, i32 0, i32 4
  %114 = load ptr, ptr %113, align 8
  %115 = getelementptr inbounds nuw %struct.Node, ptr %114, i32 0, i32 0
  %116 = load i32, ptr %115, align 4
  %117 = icmp eq i32 %116, 287
  br i1 %117, label %118, label %144

118:                                              ; preds = %111
  call void @llvm.lifetime.start.p0(i64 8, ptr %13) #9
  %119 = load ptr, ptr %8, align 8
  %120 = getelementptr inbounds nuw %struct.JoinPath, ptr %119, i32 0, i32 4
  %121 = load ptr, ptr %120, align 8
  store ptr %121, ptr %13, align 8
  %122 = load ptr, ptr %13, align 8
  %123 = getelementptr inbounds nuw %struct.ForeignPath, ptr %122, i32 0, i32 0
  %124 = getelementptr inbounds nuw %struct.Path, ptr %123, i32 0, i32 2
  %125 = load ptr, ptr %124, align 8
  %126 = getelementptr inbounds nuw %struct.RelOptInfo, ptr %125, i32 0, i32 1
  %127 = load i32, ptr %126, align 4
  %128 = icmp eq i32 %127, 1
  br i1 %128, label %137, label %129

129:                                              ; preds = %118
  %130 = load ptr, ptr %13, align 8
  %131 = getelementptr inbounds nuw %struct.ForeignPath, ptr %130, i32 0, i32 0
  %132 = getelementptr inbounds nuw %struct.Path, ptr %131, i32 0, i32 2
  %133 = load ptr, ptr %132, align 8
  %134 = getelementptr inbounds nuw %struct.RelOptInfo, ptr %133, i32 0, i32 1
  %135 = load i32, ptr %134, align 4
  %136 = icmp eq i32 %135, 3
  br i1 %136, label %137, label %143

137:                                              ; preds = %129, %118
  %138 = load ptr, ptr %13, align 8
  %139 = getelementptr inbounds nuw %struct.ForeignPath, ptr %138, i32 0, i32 1
  %140 = load ptr, ptr %139, align 8
  %141 = load ptr, ptr %8, align 8
  %142 = getelementptr inbounds nuw %struct.JoinPath, ptr %141, i32 0, i32 4
  store ptr %140, ptr %142, align 8
  br label %143

143:                                              ; preds = %137, %129
  call void @llvm.lifetime.end.p0(i64 8, ptr %13) #9
  br label %144

144:                                              ; preds = %143, %111
  %145 = load ptr, ptr %8, align 8
  store ptr %145, ptr %2, align 8
  store i32 1, ptr %6, align 4
  br label %146

146:                                              ; preds = %144, %77, %53
  call void @llvm.lifetime.end.p0(i64 8, ptr %8) #9
  call void @llvm.lifetime.end.p0(i64 8, ptr %7) #9
  %147 = load i32, ptr %6, align 4
  switch i32 %147, label %152 [
    i32 4, label %148
  ]

148:                                              ; preds = %146
  %149 = getelementptr inbounds nuw %struct.ForEachState, ptr %5, i32 0, i32 1
  %150 = load i32, ptr %149, align 8
  %151 = add i32 %150, 1
  store i32 %151, ptr %149, align 8
  br label %20, !llvm.loop !13

152:                                              ; preds = %146, %45
  call void @llvm.lifetime.end.p0(i64 16, ptr %5) #9
  %153 = load i32, ptr %6, align 4
  switch i32 %153, label %155 [
    i32 2, label %154
  ]

154:                                              ; preds = %152
  store ptr null, ptr %2, align 8
  store i32 1, ptr %6, align 4
  br label %155

155:                                              ; preds = %154, %152
  call void @llvm.lifetime.end.p0(i64 8, ptr %4) #9
  %156 = load ptr, ptr %2, align 8
  ret ptr %156
}