; Function Attrs: nounwind uwtable
define dso_local noundef ptr @GetExistingLocalJoinPath(ptr noundef readonly captures(none) %0) local_unnamed_addr #0 {
  %2 = getelementptr inbounds nuw i8, ptr %0, i64 40
  %3 = load ptr, ptr %2, align 8
  %.not = icmp eq ptr %3, null
  br i1 %.not, label %.loopexit, label %.lr.ph

.lr.ph:                                           ; preds = %1
  %4 = getelementptr inbounds nuw i8, ptr %3, i64 4
  %5 = load i32, ptr %4, align 4
  %6 = icmp sgt i32 %5, 0
  br i1 %6, label %.lr.ph70, label %.loopexit

.lr.ph70:                                         ; preds = %.lr.ph
  %7 = getelementptr inbounds nuw i8, ptr %3, i64 16
  %8 = load ptr, ptr %7, align 8
  %wide.trip.count = zext nneg i32 %5 to i64
  br label %9

9:                                                ; preds = %.lr.ph70, %46
  %indvars.iv = phi i64 [ 0, %.lr.ph70 ], [ %indvars.iv.next, %46 ]
  %10 = getelementptr inbounds nuw %union.ListCell, ptr %8, i64 %indvars.iv
  %11 = load ptr, ptr %10, align 8
  %12 = getelementptr inbounds nuw i8, ptr %11, i64 24
  %13 = load ptr, ptr %12, align 8
  %.not42 = icmp eq ptr %13, null
  br i1 %.not42, label %14, label %46

14:                                               ; preds = %9
  %15 = getelementptr inbounds nuw i8, ptr %11, i64 4
  %16 = load i32, ptr %15, align 4
  switch i32 %16, label %46 [
    i32 358, label %.split
    i32 355, label %.split64
    i32 357, label %.split67
  ]

.split:                                           ; preds = %14
  %17 = tail call noundef ptr @palloc0(i64 noundef 136) #8
  store i32 299, ptr %17, align 4
  tail call void @llvm.memcpy.p0.p0.i64(ptr noundef nonnull align 8 dereferenceable(136) %17, ptr noundef nonnull align 8 dereferenceable(136) %11, i64 136, i1 false)
  br label %20

.split64:                                         ; preds = %14
  %18 = tail call noundef ptr @palloc0(i64 noundef 112) #8
  store i32 297, ptr %18, align 4
  tail call void @llvm.memcpy.p0.p0.i64(ptr noundef nonnull align 8 dereferenceable(112) %18, ptr noundef nonnull align 8 dereferenceable(112) %11, i64 112, i1 false)
  br label %20

.split67:                                         ; preds = %14
  %19 = tail call noundef ptr @palloc0(i64 noundef 144) #8
  store i32 298, ptr %19, align 4
  tail call void @llvm.memcpy.p0.p0.i64(ptr noundef nonnull align 8 dereferenceable(144) %19, ptr noundef nonnull align 8 dereferenceable(144) %11, i64 144, i1 false)
  br label %20

20:                                               ; preds = %.split67, %.split64, %.split
  %.037.ph = phi ptr [ %17, %.split ], [ %18, %.split64 ], [ %19, %.split67 ]
  %21 = getelementptr inbounds nuw i8, ptr %.037.ph, i64 88
  %22 = load ptr, ptr %21, align 8
  %23 = load i32, ptr %22, align 4
  %24 = icmp eq i32 %23, 287
  br i1 %24, label %25, label %33

25:                                               ; preds = %20
  %26 = getelementptr inbounds nuw i8, ptr %22, i64 8
  %27 = load ptr, ptr %26, align 8
  %28 = getelementptr inbounds nuw i8, ptr %27, i64 4
  %29 = load i32, ptr %28, align 4
  switch i32 %29, label %33 [
    i32 1, label %30
    i32 3, label %30
  ]

30:                                               ; preds = %25, %25
  %31 = getelementptr inbounds nuw i8, ptr %22, i64 80
  %32 = load ptr, ptr %31, align 8
  store ptr %32, ptr %21, align 8
  br label %33

33:                                               ; preds = %30, %25, %20
  %34 = getelementptr inbounds nuw i8, ptr %.037.ph, i64 96
  %35 = load ptr, ptr %34, align 8
  %36 = load i32, ptr %35, align 4
  %37 = icmp eq i32 %36, 287
  br i1 %37, label %38, label %.loopexit

38:                                               ; preds = %33
  %39 = getelementptr inbounds nuw i8, ptr %35, i64 8
  %40 = load ptr, ptr %39, align 8
  %41 = getelementptr inbounds nuw i8, ptr %40, i64 4
  %42 = load i32, ptr %41, align 4
  switch i32 %42, label %.loopexit [
    i32 1, label %43
    i32 3, label %43
  ]

43:                                               ; preds = %38, %38
  %44 = getelementptr inbounds nuw i8, ptr %35, i64 80
  %45 = load ptr, ptr %44, align 8
  store ptr %45, ptr %34, align 8
  br label %.loopexit

46:                                               ; preds = %9, %14
  %indvars.iv.next = add nuw nsw i64 %indvars.iv, 1
  %exitcond.not = icmp eq i64 %indvars.iv.next, %wide.trip.count
  br i1 %exitcond.not, label %.loopexit, label %9

.loopexit:                                        ; preds = %46, %1, %.lr.ph, %33, %38, %43
  %47 = phi ptr [ %.037.ph, %43 ], [ %.037.ph, %38 ], [ %.037.ph, %33 ], [ null, %.lr.ph ], [ null, %1 ], [ null, %46 ]
  ret ptr %47
}